target datalayout = "e-m:e-p270:32:32-p271:32:32-p272:64:64-i64:64-i128:128-f80:128-n8:16:32:64-S128"
target triple = "x86_64-pc-linux-gnu"

%"struct.llvm::SizeOffsetType.86" = type { ptr, ptr }
%"struct.llvm::SizeOffsetType.139" = type { %"class.llvm::WeakTrackingVH", %"class.llvm::WeakTrackingVH" }
%"class.llvm::WeakTrackingVH" = type { %"class.llvm::ValueHandleBase" }
%"class.llvm::ValueHandleBase" = type { %"class.llvm::PointerIntPair", ptr, ptr }
%"class.llvm::PointerIntPair" = type { %"struct.llvm::detail::PunnedPointer" }
%"struct.llvm::detail::PunnedPointer" = type { [8 x i8] }

; Function Attrs: mustprogress nounwind uwtable
define linkonce_odr hidden noundef ptr @_ZNK4llvm15ValueHandleBase9getValPtrEv(ptr noundef nonnull align 8 dereferenceable(24) %0) #1 comdat align 2 {
  %2 = alloca ptr, align 8
  store ptr %0, ptr %2, align 8
  %3 = load ptr, ptr %2, align 8
  %4 = getelementptr inbounds nuw %"class.llvm::ValueHandleBase", ptr %3, i32 0, i32 2
  %5 = load ptr, ptr %4, align 8
  ret ptr %5
}

; Function Attrs: mustprogress nounwind uwtable
define linkonce_odr hidden void @_ZN4llvm14SizeOffsetTypeIPNS_5ValueENS_15SizeOffsetValueEEC2ES2_S2_(ptr noundef nonnull align 8 dereferenceable(16) %0, ptr noundef %1, ptr noundef %2) unnamed_addr #1 comdat align 2 {
  %4 = alloca ptr, align 8
  %5 = alloca ptr, align 8
  %6 = alloca ptr, align 8
  store ptr %0, ptr %4, align 8
  store ptr %1, ptr %5, align 8
  store ptr %2, ptr %6, align 8
  %7 = load ptr, ptr %4, align 8
  %8 = getelementptr inbounds nuw %"struct.llvm::SizeOffsetType.86", ptr %7, i32 0, i32 0
  %9 = load ptr, ptr %5, align 8
  store ptr %9, ptr %8, align 8
  %10 = getelementptr inbounds nuw %"struct.llvm::SizeOffsetType.86", ptr %7, i32 0, i32 1
  %11 = load ptr, ptr %6, align 8
  store ptr %11, ptr %10, align 8
  ret void
}

; Function Attrs: mustprogress nounwind uwtable
define linkonce_odr hidden noundef ptr @_ZNK4llvm14WeakTrackingVHcvPNS_5ValueEEv(ptr noundef nonnull align 8 dereferenceable(24) %0) #1 comdat align 2 {
  %2 = alloca ptr, align 8
  store ptr %0, ptr %2, align 8
  %3 = load ptr, ptr %2, align 8
  %4 = call noundef ptr @_ZNK4llvm15ValueHandleBase9getValPtrEv(ptr noundef nonnull align 8 dereferenceable(24) %3)
  ret ptr %4
}

; Function Attrs: mustprogress nounwind uwtable
define dso_local void @_ZN4llvm15SizeOffsetValueC2ERKNS_24SizeOffsetWeakTrackingVHE(ptr noundef nonnull align 8 dereferenceable(16) %0, ptr noundef nonnull align 8 dereferenceable(48) %1) unnamed_addr #1 align 2 {
  %3 = alloca ptr, align 8
  %4 = alloca ptr, align 8
  store ptr %0, ptr %3, align 8
  store ptr %1, ptr %4, align 8
  %5 = load ptr, ptr %3, align 8
  %6 = load ptr, ptr %4, align 8
  %7 = getelementptr inbounds nuw %"struct.llvm::SizeOffsetType.139", ptr %6, i32 0, i32 0
  %8 = call noundef ptr @_ZNK4llvm14WeakTrackingVHcvPNS_5ValueEEv(ptr noundef nonnull align 8 dereferenceable(24) %7)
  %9 = load ptr, ptr %4, align 8
  %10 = getelementptr inbounds nuw %"struct.llvm::SizeOffsetType.139", ptr %9, i32 0, i32 1
  %11 = call noundef ptr @_ZNK4llvm14WeakTrackingVHcvPNS_5ValueEEv(ptr noundef nonnull align 8 dereferenceable(24) %10)
  call void @_ZN4llvm14SizeOffsetTypeIPNS_5ValueENS_15SizeOffsetValueEEC2ES2_S2_(ptr noundef nonnull align 8 dereferenceable(16) %5, ptr noundef %8, ptr noundef %11)
  ret void
}